target datalayout = "e-m:e-p270:32:32-p271:32:32-p272:64:64-i64:64-i128:128-f80:128-n8:16:32:64-S128"
target triple = "x86_64-pc-linux-gnu"

%struct.gz_state = type { i32, i32, ptr, i64, i32, i32, ptr, ptr, ptr, i32, i32, i64, i64, i32, i32, i32, i32, i64, i32, i32, ptr, %struct.z_stream_s }
%struct.z_stream_s = type { ptr, i32, i64, ptr, i32, i64, ptr, ptr, ptr, ptr, ptr, i32, i64, i64 }

; Function Attrs: nounwind uwtable
define internal i32 @gz_load(ptr noundef %0, ptr noundef %1, i32 noundef %2, ptr noundef %3) #0 {
  %5 = alloca i32, align 4
  %6 = alloca ptr, align 8
  %7 = alloca ptr, align 8
  %8 = alloca i32, align 4
  %9 = alloca ptr, align 8
  %10 = alloca i32, align 4
  %11 = alloca i32, align 4
  store ptr %0, ptr %6, align 8, !tbaa !3
  store ptr %1, ptr %7, align 8, !tbaa !35
  store i32 %2, ptr %8, align 4, !tbaa !7
  store ptr %3, ptr %9, align 8, !tbaa !36
  call void @llvm.lifetime.start.p0(i64 4, ptr %10) #8
  %12 = load ptr, ptr %9, align 8, !tbaa !36
  store i32 0, ptr %12, align 4, !tbaa !7
  br label %13

13:                                               ; preds = %37, %4
  %14 = load ptr, ptr %6, align 8, !tbaa !3
  %15 = getelementptr inbounds nuw %struct.gz_state, ptr %14, i32 0, i32 1
  %16 = load i32, ptr %15, align 4, !tbaa !38
  %17 = load ptr, ptr %7, align 8, !tbaa !35
  %18 = load ptr, ptr %9, align 8, !tbaa !36
  %19 = load i32, ptr %18, align 4, !tbaa !7
  %20 = zext i32 %19 to i64
  %21 = getelementptr inbounds nuw i8, ptr %17, i64 %20
  %22 = load i32, ptr %8, align 4, !tbaa !7
  %23 = load ptr, ptr %9, align 8, !tbaa !36
  %24 = load i32, ptr %23, align 4, !tbaa !7
  %25 = sub i32 %22, %24
  %26 = zext i32 %25 to i64
  %27 = call i64 @read(i32 noundef %16, ptr noundef %21, i64 noundef %26)
  %28 = trunc i64 %27 to i32
  store i32 %28, ptr %10, align 4, !tbaa !7
  %29 = load i32, ptr %10, align 4, !tbaa !7
  %30 = icmp sle i32 %29, 0
  br i1 %30, label %31, label %32

31:                                               ; preds = %13
  br label %42

32:                                               ; preds = %13
  %33 = load i32, ptr %10, align 4, !tbaa !7
  %34 = load ptr, ptr %9, align 8, !tbaa !36
  %35 = load i32, ptr %34, align 4, !tbaa !7
  %36 = add i32 %35, %33
  store i32 %36, ptr %34, align 4, !tbaa !7
  br label %37

37:                                               ; preds = %32
  %38 = load ptr, ptr %9, align 8, !tbaa !36
  %39 = load i32, ptr %38, align 4, !tbaa !7
  %40 = load i32, ptr %8, align 4, !tbaa !7
  %41 = icmp ult i32 %39, %40
  br i1 %41, label %13, label %42, !llvm.loop !39

42:                                               ; preds = %37, %31
  %43 = load i32, ptr %10, align 4, !tbaa !7
  %44 = icmp slt i32 %43, 0
  br i1 %44, label %45, label %50

45:                                               ; preds = %42
  %46 = load ptr, ptr %6, align 8, !tbaa !3
  %47 = call ptr @__errno_location() #9
  %48 = load i32, ptr %47, align 4, !tbaa !7
  %49 = call ptr @strerror(i32 noundef %48) #8
  call void @gz_error(ptr noundef %46, i32 noundef -1, ptr noundef %49)
  store i32 -1, ptr %5, align 4
  store i32 1, ptr %11, align 4
  br label %57

50:                                               ; preds = %42
  %51 = load i32, ptr %10, align 4, !tbaa !7
  %52 = icmp eq i32 %51, 0
  br i1 %52, label %53, label %56

53:                                               ; preds = %50
  %54 = load ptr, ptr %6, align 8, !tbaa !3
  %55 = getelementptr inbounds nuw %struct.gz_state, ptr %54, i32 0, i32 10
  store i32 1, ptr %55, align 4, !tbaa !22
  br label %56

56:                                               ; preds = %53, %50
  store i32 0, ptr %5, align 4
  store i32 1, ptr %11, align 4
  br label %57

57:                                               ; preds = %56, %45
  call void @llvm.lifetime.end.p0(i64 4, ptr %10) #8
  %58 = load i32, ptr %5, align 4
  ret i32 %58
}

; Function Attrs: nounwind uwtable
define internal i32 @gz_make(ptr noundef %0) #0 {
  %2 = alloca i32, align 4
  %3 = alloca ptr, align 8
  %4 = alloca ptr, align 8
  %5 = alloca i32, align 4
  store ptr %0, ptr %3, align 8, !tbaa !3
  call void @llvm.lifetime.start.p0(i64 8, ptr %4) #8
  %6 = load ptr, ptr %3, align 8, !tbaa !3
  %7 = getelementptr inbounds nuw %struct.gz_state, ptr %6, i32 0, i32 21
  store ptr %7, ptr %4, align 8, !tbaa !9
  %8 = load ptr, ptr %3, align 8, !tbaa !3
  %9 = getelementptr inbounds nuw %struct.gz_state, ptr %8, i32 0, i32 13
  %10 = load i32, ptr %9, align 8, !tbaa !24
  %11 = icmp eq i32 %10, 0
  br i1 %11, label %12, label %24

12:                                               ; preds = %1
  %13 = load ptr, ptr %3, align 8, !tbaa !3
  %14 = call i32 @gz_head(ptr noundef %13)
  %15 = icmp eq i32 %14, -1
  br i1 %15, label %16, label %17

16:                                               ; preds = %12
  store i32 -1, ptr %2, align 4
  store i32 1, ptr %5, align 4
  br label %73

17:                                               ; preds = %12
  %18 = load ptr, ptr %3, align 8, !tbaa !3
  %19 = getelementptr inbounds nuw %struct.gz_state, ptr %18, i32 0, i32 9
  %20 = load i32, ptr %19, align 8, !tbaa !20
  %21 = icmp ne i32 %20, 0
  br i1 %21, label %22, label %23

22:                                               ; preds = %17
  store i32 0, ptr %2, align 4
  store i32 1, ptr %5, align 4
  br label %73

23:                                               ; preds = %17
  br label %24

24:                                               ; preds = %23, %1
  %25 = load ptr, ptr %3, align 8, !tbaa !3
  %26 = getelementptr inbounds nuw %struct.gz_state, ptr %25, i32 0, i32 13
  %27 = load i32, ptr %26, align 8, !tbaa !24
  %28 = icmp eq i32 %27, 1
  br i1 %28, label %29, label %49

29:                                               ; preds = %24
  %30 = load ptr, ptr %3, align 8, !tbaa !3
  %31 = load ptr, ptr %3, align 8, !tbaa !3
  %32 = getelementptr inbounds nuw %struct.gz_state, ptr %31, i32 0, i32 7
  %33 = load ptr, ptr %32, align 8, !tbaa !34
  %34 = load ptr, ptr %3, align 8, !tbaa !3
  %35 = getelementptr inbounds nuw %struct.gz_state, ptr %34, i32 0, i32 4
  %36 = load i32, ptr %35, align 8, !tbaa !25
  %37 = shl i32 %36, 1
  %38 = load ptr, ptr %3, align 8, !tbaa !3
  %39 = getelementptr inbounds nuw %struct.gz_state, ptr %38, i32 0, i32 9
  %40 = call i32 @gz_load(ptr noundef %30, ptr noundef %33, i32 noundef %37, ptr noundef %39)
  %41 = icmp eq i32 %40, -1
  br i1 %41, label %42, label %43

42:                                               ; preds = %29
  store i32 -1, ptr %2, align 4
  store i32 1, ptr %5, align 4
  br label %73

43:                                               ; preds = %29
  %44 = load ptr, ptr %3, align 8, !tbaa !3
  %45 = getelementptr inbounds nuw %struct.gz_state, ptr %44, i32 0, i32 7
  %46 = load ptr, ptr %45, align 8, !tbaa !34
  %47 = load ptr, ptr %3, align 8, !tbaa !3
  %48 = getelementptr inbounds nuw %struct.gz_state, ptr %47, i32 0, i32 8
  store ptr %46, ptr %48, align 8, !tbaa !21
  br label %72

49:                                               ; preds = %24
  %50 = load ptr, ptr %3, align 8, !tbaa !3
  %51 = getelementptr inbounds nuw %struct.gz_state, ptr %50, i32 0, i32 13
  %52 = load i32, ptr %51, align 8, !tbaa !24
  %53 = icmp eq i32 %52, 2
  br i1 %53, label %54, label %71

54:                                               ; preds = %49
  %55 = load ptr, ptr %3, align 8, !tbaa !3
  %56 = getelementptr inbounds nuw %struct.gz_state, ptr %55, i32 0, i32 4
  %57 = load i32, ptr %56, align 8, !tbaa !25
  %58 = shl i32 %57, 1
  %59 = load ptr, ptr %4, align 8, !tbaa !9
  %60 = getelementptr inbounds nuw %struct.z_stream_s, ptr %59, i32 0, i32 4
  store i32 %58, ptr %60, align 8, !tbaa !26
  %61 = load ptr, ptr %3, align 8, !tbaa !3
  %62 = getelementptr inbounds nuw %struct.gz_state, ptr %61, i32 0, i32 7
  %63 = load ptr, ptr %62, align 8, !tbaa !34
  %64 = load ptr, ptr %4, align 8, !tbaa !9
  %65 = getelementptr inbounds nuw %struct.z_stream_s, ptr %64, i32 0, i32 3
  store ptr %63, ptr %65, align 8, !tbaa !27
  %66 = load ptr, ptr %3, align 8, !tbaa !3
  %67 = call i32 @gz_decomp(ptr noundef %66)
  %68 = icmp eq i32 %67, -1
  br i1 %68, label %69, label %70

69:                                               ; preds = %54
  store i32 -1, ptr %2, align 4
  store i32 1, ptr %5, align 4
  br label %73

70:                                               ; preds = %54
  br label %71

71:                                               ; preds = %70, %49
  br label %72

72:                                               ; preds = %71, %43
  store i32 0, ptr %2, align 4
  store i32 1, ptr %5, align 4
  br label %73

73:                                               ; preds = %72, %69, %42, %22, %16
  call void @llvm.lifetime.end.p0(i64 8, ptr %4) #8
  %74 = load i32, ptr %2, align 4
  ret i32 %74
}