; Function Attrs: nounwind uwtable
define internal fastcc range(i32 -1, 1) i32 @gz_make(ptr noundef nonnull %0) unnamed_addr #0 {
  %2 = getelementptr inbounds nuw i8, ptr %0, i64 80
  %3 = load i32, ptr %2, align 8, !tbaa !24
  %4 = icmp eq i32 %3, 0
  br i1 %4, label %5, label %11

5:                                                ; preds = %1
  %6 = tail call fastcc i32 @gz_head(ptr noundef %0)
  %7 = icmp eq i32 %6, -1
  br i1 %7, label %55, label %8

8:                                                ; preds = %5
  %9 = getelementptr inbounds nuw i8, ptr %0, i64 56
  %10 = load i32, ptr %9, align 8, !tbaa !16
  %.not = icmp eq i32 %10, 0
  br i1 %.not, label %thread-pre-split, label %55

thread-pre-split:                                 ; preds = %8
  %.pr = load i32, ptr %2, align 8, !tbaa !24
  br label %11

11:                                               ; preds = %thread-pre-split, %1
  %12 = phi i32 [ %.pr, %thread-pre-split ], [ %3, %1 ]
  switch i32 %12, label %54 [
    i32 1, label %13
    i32 2, label %44
  ]

13:                                               ; preds = %11
  %14 = getelementptr inbounds nuw i8, ptr %0, i64 40
  %15 = load ptr, ptr %14, align 8, !tbaa !32
  %16 = getelementptr inbounds nuw i8, ptr %0, i64 24
  %17 = load i32, ptr %16, align 8, !tbaa !25
  %18 = shl i32 %17, 1
  %19 = getelementptr inbounds nuw i8, ptr %0, i64 56
  store i32 0, ptr %19, align 4, !tbaa !28
  %20 = getelementptr inbounds nuw i8, ptr %0, i64 4
  br label %21

21:                                               ; preds = %31, %13
  %22 = phi i32 [ %33, %31 ], [ 0, %13 ]
  %23 = load i32, ptr %20, align 4, !tbaa !26
  %24 = zext i32 %22 to i64
  %25 = getelementptr inbounds nuw i8, ptr %15, i64 %24
  %26 = sub i32 %18, %22
  %27 = zext i32 %26 to i64
  %28 = tail call i64 @read(i32 noundef %23, ptr noundef %25, i64 noundef %27) #12
  %29 = trunc i64 %28 to i32
  %30 = icmp slt i32 %29, 1
  br i1 %30, label %35, label %31

31:                                               ; preds = %21
  %32 = load i32, ptr %19, align 4, !tbaa !28
  %33 = add i32 %32, %29
  store i32 %33, ptr %19, align 4, !tbaa !28
  %34 = icmp ult i32 %33, %18
  br i1 %34, label %21, label %.loopexit, !llvm.loop !27

35:                                               ; preds = %21
  %36 = icmp slt i32 %29, 0
  br i1 %36, label %gz_load.exit, label %37

37:                                               ; preds = %35
  %38 = getelementptr inbounds nuw i8, ptr %0, i64 60
  store i32 1, ptr %38, align 4, !tbaa !19
  br label %.loopexit

gz_load.exit:                                     ; preds = %35
  %39 = tail call ptr @__errno_location() #13
  %40 = load i32, ptr %39, align 4, !tbaa !28
  %41 = tail call ptr @strerror(i32 noundef %40) #12
  tail call void @gz_error(ptr noundef nonnull %0, i32 noundef -1, ptr noundef %41) #12
  br label %55

.loopexit:                                        ; preds = %31, %37
  %42 = load ptr, ptr %14, align 8, !tbaa !32
  %43 = getelementptr inbounds nuw i8, ptr %0, i64 48
  store ptr %42, ptr %43, align 8, !tbaa !17
  br label %54

44:                                               ; preds = %11
  %45 = getelementptr inbounds nuw i8, ptr %0, i64 24
  %46 = load i32, ptr %45, align 8, !tbaa !25
  %47 = shl i32 %46, 1
  %48 = getelementptr inbounds nuw i8, ptr %0, i64 152
  store i32 %47, ptr %48, align 8, !tbaa !29
  %49 = getelementptr inbounds nuw i8, ptr %0, i64 40
  %50 = load ptr, ptr %49, align 8, !tbaa !32
  %51 = getelementptr inbounds nuw i8, ptr %0, i64 144
  store ptr %50, ptr %51, align 8, !tbaa !30
  %52 = tail call fastcc i32 @gz_decomp(ptr noundef %0)
  %53 = icmp eq i32 %52, -1
  br i1 %53, label %55, label %54

54:                                               ; preds = %11, %44, %.loopexit
  br label %55

55:                                               ; preds = %gz_load.exit, %44, %8, %5, %54
  %.0 = phi i32 [ 0, %54 ], [ -1, %5 ], [ 0, %8 ], [ -1, %gz_load.exit ], [ -1, %44 ]
  ret i32 %.0
}